
FSM.elf:     file format elf32-avr

Sections:
Idx Name          Size      VMA       LMA       File off  Algn
  0 .data         000003ce  00800100  0000091c  000009b0  2**0
                  CONTENTS, ALLOC, LOAD, DATA
  1 .text         0000091c  00000000  00000000  00000094  2**1
                  CONTENTS, ALLOC, LOAD, READONLY, CODE
  2 .bss          00000004  008004ce  008004ce  00000d7e  2**0
                  ALLOC
  3 .comment      00000030  00000000  00000000  00000d7e  2**0
                  CONTENTS, READONLY
  4 .note.gnu.avr.deviceinfo 00000040  00000000  00000000  00000db0  2**2
                  CONTENTS, READONLY
  5 .debug_aranges 00000198  00000000  00000000  00000df0  2**0
                  CONTENTS, READONLY, DEBUGGING
  6 .debug_info   000017f8  00000000  00000000  00000f88  2**0
                  CONTENTS, READONLY, DEBUGGING
  7 .debug_abbrev 00000911  00000000  00000000  00002780  2**0
                  CONTENTS, READONLY, DEBUGGING
  8 .debug_line   00000cff  00000000  00000000  00003091  2**0
                  CONTENTS, READONLY, DEBUGGING
  9 .debug_frame  000003b4  00000000  00000000  00003d90  2**2
                  CONTENTS, READONLY, DEBUGGING
 10 .debug_str    00000708  00000000  00000000  00004144  2**0
                  CONTENTS, READONLY, DEBUGGING
 11 .debug_loc    00000905  00000000  00000000  0000484c  2**0
                  CONTENTS, READONLY, DEBUGGING
 12 .debug_ranges 00000178  00000000  00000000  00005151  2**0
                  CONTENTS, READONLY, DEBUGGING

Disassembly of section .text:

00000000 <__vectors>:
   0:	0c 94 34 00 	jmp	0x68	; 0x68 <__ctors_end>
   4:	0c 94 51 00 	jmp	0xa2	; 0xa2 <__bad_interrupt>
   8:	0c 94 51 00 	jmp	0xa2	; 0xa2 <__bad_interrupt>
   c:	0c 94 51 00 	jmp	0xa2	; 0xa2 <__bad_interrupt>
  10:	0c 94 51 00 	jmp	0xa2	; 0xa2 <__bad_interrupt>
  14:	0c 94 51 00 	jmp	0xa2	; 0xa2 <__bad_interrupt>
  18:	0c 94 51 00 	jmp	0xa2	; 0xa2 <__bad_interrupt>
  1c:	0c 94 51 00 	jmp	0xa2	; 0xa2 <__bad_interrupt>
  20:	0c 94 51 00 	jmp	0xa2	; 0xa2 <__bad_interrupt>
  24:	0c 94 51 00 	jmp	0xa2	; 0xa2 <__bad_interrupt>
  28:	0c 94 51 00 	jmp	0xa2	; 0xa2 <__bad_interrupt>
  2c:	0c 94 51 00 	jmp	0xa2	; 0xa2 <__bad_interrupt>
  30:	0c 94 51 00 	jmp	0xa2	; 0xa2 <__bad_interrupt>
  34:	0c 94 51 00 	jmp	0xa2	; 0xa2 <__bad_interrupt>
  38:	0c 94 51 00 	jmp	0xa2	; 0xa2 <__bad_interrupt>
  3c:	0c 94 51 00 	jmp	0xa2	; 0xa2 <__bad_interrupt>
  40:	0c 94 51 00 	jmp	0xa2	; 0xa2 <__bad_interrupt>
  44:	0c 94 51 00 	jmp	0xa2	; 0xa2 <__bad_interrupt>
  48:	0c 94 51 00 	jmp	0xa2	; 0xa2 <__bad_interrupt>
  4c:	0c 94 51 00 	jmp	0xa2	; 0xa2 <__bad_interrupt>
  50:	0c 94 51 00 	jmp	0xa2	; 0xa2 <__bad_interrupt>
  54:	0c 94 51 00 	jmp	0xa2	; 0xa2 <__bad_interrupt>
  58:	0c 94 51 00 	jmp	0xa2	; 0xa2 <__bad_interrupt>
  5c:	0c 94 51 00 	jmp	0xa2	; 0xa2 <__bad_interrupt>
  60:	0c 94 51 00 	jmp	0xa2	; 0xa2 <__bad_interrupt>
  64:	0c 94 51 00 	jmp	0xa2	; 0xa2 <__bad_interrupt>

00000068 <__ctors_end>:
  68:	11 24       	eor	r1, r1
  6a:	1f be       	out	0x3f, r1	; 63
  6c:	cf ef       	ldi	r28, 0xFF	; 255
  6e:	d8 e0       	ldi	r29, 0x08	; 8
  70:	de bf       	out	0x3e, r29	; 62
  72:	cd bf       	out	0x3d, r28	; 61

00000074 <__do_copy_data>:
  74:	14 e0       	ldi	r17, 0x04	; 4
  76:	a0 e0       	ldi	r26, 0x00	; 0
  78:	b1 e0       	ldi	r27, 0x01	; 1
  7a:	ec e1       	ldi	r30, 0x1C	; 28
  7c:	f9 e0       	ldi	r31, 0x09	; 9
  7e:	02 c0       	rjmp	.+4      	; 0x84 <__do_copy_data+0x10>
  80:	05 90       	lpm	r0, Z+
  82:	0d 92       	st	X+, r0
  84:	ae 3c       	cpi	r26, 0xCE	; 206
  86:	b1 07       	cpc	r27, r17
  88:	d9 f7       	brne	.-10     	; 0x80 <__do_copy_data+0xc>

0000008a <__do_clear_bss>:
  8a:	24 e0       	ldi	r18, 0x04	; 4
  8c:	ae ec       	ldi	r26, 0xCE	; 206
  8e:	b4 e0       	ldi	r27, 0x04	; 4
  90:	01 c0       	rjmp	.+2      	; 0x94 <.do_clear_bss_start>

00000092 <.do_clear_bss_loop>:
  92:	1d 92       	st	X+, r1

00000094 <.do_clear_bss_start>:
  94:	a2 3d       	cpi	r26, 0xD2	; 210
  96:	b2 07       	cpc	r27, r18
  98:	e1 f7       	brne	.-8      	; 0x92 <.do_clear_bss_loop>
  9a:	0e 94 c3 02 	call	0x586	; 0x586 <main>
  9e:	0c 94 8c 04 	jmp	0x918	; 0x918 <_exit>

000000a2 <__bad_interrupt>:
  a2:	0c 94 00 00 	jmp	0	; 0x0 <__vectors>

000000a6 <getChar_>:
  a6:	e0 ec       	ldi	r30, 0xC0	; 192
  a8:	f0 e0       	ldi	r31, 0x00	; 0
  aa:	80 81       	ld	r24, Z
  ac:	88 23       	and	r24, r24
  ae:	ec f7       	brge	.-6      	; 0xaa <getChar_+0x4>
  b0:	80 91 c6 00 	lds	r24, 0x00C6	; 0x8000c6 <__TEXT_REGION_LENGTH__+0x7e00c6>
  b4:	08 95       	ret

000000b6 <putChar_>:
  b6:	cf 93       	push	r28
  b8:	c8 2f       	mov	r28, r24
  ba:	8a 30       	cpi	r24, 0x0A	; 10
  bc:	19 f4       	brne	.+6      	; 0xc4 <putChar_+0xe>
  be:	8d e0       	ldi	r24, 0x0D	; 13
  c0:	0e 94 5b 00 	call	0xb6	; 0xb6 <putChar_>
  c4:	e0 ec       	ldi	r30, 0xC0	; 192
  c6:	f0 e0       	ldi	r31, 0x00	; 0
  c8:	80 81       	ld	r24, Z
  ca:	85 ff       	sbrs	r24, 5
  cc:	fd cf       	rjmp	.-6      	; 0xc8 <putChar_+0x12>
  ce:	c0 93 c6 00 	sts	0x00C6, r28	; 0x8000c6 <__TEXT_REGION_LENGTH__+0x7e00c6>
  d2:	cf 91       	pop	r28
  d4:	08 95       	ret

000000d6 <printm>:
  d6:	cf 93       	push	r28
  d8:	df 93       	push	r29
  da:	ec 01       	movw	r28, r24
  dc:	88 81       	ld	r24, Y
  de:	88 23       	and	r24, r24
  e0:	31 f0       	breq	.+12     	; 0xee <printm+0x18>
  e2:	21 96       	adiw	r28, 0x01	; 1
  e4:	0e 94 5b 00 	call	0xb6	; 0xb6 <putChar_>
  e8:	89 91       	ld	r24, Y+
  ea:	81 11       	cpse	r24, r1
  ec:	fb cf       	rjmp	.-10     	; 0xe4 <printm+0xe>
  ee:	df 91       	pop	r29
  f0:	cf 91       	pop	r28
  f2:	08 95       	ret

000000f4 <scanm>:
  f4:	0f 93       	push	r16
  f6:	1f 93       	push	r17
  f8:	cf 93       	push	r28
  fa:	df 93       	push	r29
  fc:	fc 01       	movw	r30, r24
  fe:	20 81       	ld	r18, Z
 100:	2a 30       	cpi	r18, 0x0A	; 10
 102:	71 f0       	breq	.+28     	; 0x120 <scanm+0x2c>
 104:	ec 01       	movw	r28, r24
 106:	8e 01       	movw	r16, r28
 108:	0e 94 53 00 	call	0xa6	; 0xa6 <getChar_>
 10c:	89 93       	st	Y+, r24
 10e:	8d 30       	cpi	r24, 0x0D	; 13
 110:	41 f0       	breq	.+16     	; 0x122 <scanm+0x2e>
 112:	0e 94 5b 00 	call	0xb6	; 0xb6 <putChar_>
 116:	8e 01       	movw	r16, r28
 118:	88 81       	ld	r24, Y
 11a:	8a 30       	cpi	r24, 0x0A	; 10
 11c:	a1 f7       	brne	.-24     	; 0x106 <scanm+0x12>
 11e:	01 c0       	rjmp	.+2      	; 0x122 <scanm+0x2e>
 120:	8c 01       	movw	r16, r24
 122:	f8 01       	movw	r30, r16
 124:	10 82       	st	Z, r1
 126:	df 91       	pop	r29
 128:	cf 91       	pop	r28
 12a:	1f 91       	pop	r17
 12c:	0f 91       	pop	r16
 12e:	08 95       	ret

00000130 <delay_ms>:
 130:	18 16       	cp	r1, r24
 132:	19 06       	cpc	r1, r25
 134:	6c f4       	brge	.+26     	; 0x150 <delay_ms+0x20>
 136:	20 e0       	ldi	r18, 0x00	; 0
 138:	30 e0       	ldi	r19, 0x00	; 0
	#else
		//round up by default
		__ticks_dc = (uint32_t)(ceil(fabs(__tmp)));
	#endif

	__builtin_avr_delay_cycles(__ticks_dc);
 13a:	ef e9       	ldi	r30, 0x9F	; 159
 13c:	ff e0       	ldi	r31, 0x0F	; 15
 13e:	31 97       	sbiw	r30, 0x01	; 1
 140:	f1 f7       	brne	.-4      	; 0x13e <delay_ms+0xe>
 142:	00 c0       	rjmp	.+0      	; 0x144 <delay_ms+0x14>
 144:	00 00       	nop
 146:	2f 5f       	subi	r18, 0xFF	; 255
 148:	3f 4f       	sbci	r19, 0xFF	; 255
 14a:	82 17       	cp	r24, r18
 14c:	93 07       	cpc	r25, r19
 14e:	a9 f7       	brne	.-22     	; 0x13a <delay_ms+0xa>
 150:	08 95       	ret

00000152 <mymainMenu>:
 152:	cf 93       	push	r28
 154:	df 93       	push	r29
 156:	ec 01       	movw	r28, r24
 158:	89 e0       	ldi	r24, 0x09	; 9
 15a:	91 e0       	ldi	r25, 0x01	; 1
 15c:	0e 94 6b 00 	call	0xd6	; 0xd6 <printm>
 160:	86 e1       	ldi	r24, 0x16	; 22
 162:	91 e0       	ldi	r25, 0x01	; 1
 164:	0e 94 6b 00 	call	0xd6	; 0xd6 <printm>
 168:	8a e2       	ldi	r24, 0x2A	; 42
 16a:	91 e0       	ldi	r25, 0x01	; 1
 16c:	0e 94 6b 00 	call	0xd6	; 0xd6 <printm>
 170:	8f e3       	ldi	r24, 0x3F	; 63
 172:	91 e0       	ldi	r25, 0x01	; 1
 174:	0e 94 6b 00 	call	0xd6	; 0xd6 <printm>
 178:	0e 94 53 00 	call	0xa6	; 0xa6 <getChar_>
 17c:	84 36       	cpi	r24, 0x64	; 100
 17e:	69 f0       	breq	.+26     	; 0x19a <mymainMenu+0x48>
 180:	83 37       	cpi	r24, 0x73	; 115
 182:	41 f0       	breq	.+16     	; 0x194 <mymainMenu+0x42>
 184:	81 36       	cpi	r24, 0x61	; 97
 186:	61 f4       	brne	.+24     	; 0x1a0 <mymainMenu+0x4e>
 188:	82 e5       	ldi	r24, 0x52	; 82
 18a:	91 e0       	ldi	r25, 0x01	; 1
 18c:	0e 94 6b 00 	call	0xd6	; 0xd6 <printm>
 190:	18 82       	st	Y, r1
 192:	0b c0       	rjmp	.+22     	; 0x1aa <mymainMenu+0x58>
 194:	81 e0       	ldi	r24, 0x01	; 1
 196:	88 83       	st	Y, r24
 198:	08 c0       	rjmp	.+16     	; 0x1aa <mymainMenu+0x58>
 19a:	82 e0       	ldi	r24, 0x02	; 2
 19c:	88 83       	st	Y, r24
 19e:	05 c0       	rjmp	.+10     	; 0x1aa <mymainMenu+0x58>
 1a0:	18 82       	st	Y, r1
 1a2:	83 e6       	ldi	r24, 0x63	; 99
 1a4:	91 e0       	ldi	r25, 0x01	; 1
 1a6:	0e 94 6b 00 	call	0xd6	; 0xd6 <printm>
 1aa:	df 91       	pop	r29
 1ac:	cf 91       	pop	r28
 1ae:	08 95       	ret

000001b0 <sleepOpt>:
 1b0:	cf 93       	push	r28
 1b2:	df 93       	push	r29
 1b4:	ec 01       	movw	r28, r24
 1b6:	88 e8       	ldi	r24, 0x88	; 136
 1b8:	91 e0       	ldi	r25, 0x01	; 1
 1ba:	0e 94 6b 00 	call	0xd6	; 0xd6 <printm>
 1be:	89 e9       	ldi	r24, 0x99	; 153
 1c0:	91 e0       	ldi	r25, 0x01	; 1
 1c2:	0e 94 6b 00 	call	0xd6	; 0xd6 <printm>
 1c6:	86 ea       	ldi	r24, 0xA6	; 166
 1c8:	91 e0       	ldi	r25, 0x01	; 1
 1ca:	0e 94 6b 00 	call	0xd6	; 0xd6 <printm>
 1ce:	88 eb       	ldi	r24, 0xB8	; 184
 1d0:	91 e0       	ldi	r25, 0x01	; 1
 1d2:	0e 94 6b 00 	call	0xd6	; 0xd6 <printm>
 1d6:	0e 94 53 00 	call	0xa6	; 0xa6 <getChar_>
 1da:	82 33       	cpi	r24, 0x32	; 50
 1dc:	11 f1       	breq	.+68     	; 0x222 <sleepOpt+0x72>
 1de:	8d 36       	cpi	r24, 0x6D	; 109
 1e0:	09 f4       	brne	.+2      	; 0x1e4 <sleepOpt+0x34>
 1e2:	3b c0       	rjmp	.+118    	; 0x25a <sleepOpt+0xaa>
 1e4:	81 33       	cpi	r24, 0x31	; 49
 1e6:	09 f0       	breq	.+2      	; 0x1ea <sleepOpt+0x3a>
 1e8:	3a c0       	rjmp	.+116    	; 0x25e <sleepOpt+0xae>
 1ea:	89 ec       	ldi	r24, 0xC9	; 201
 1ec:	91 e0       	ldi	r25, 0x01	; 1
 1ee:	0e 94 6b 00 	call	0xd6	; 0xd6 <printm>
 1f2:	8f e3       	ldi	r24, 0x3F	; 63
 1f4:	9c e9       	ldi	r25, 0x9C	; 156
 1f6:	01 97       	sbiw	r24, 0x01	; 1
 1f8:	f1 f7       	brne	.-4      	; 0x1f6 <sleepOpt+0x46>
 1fa:	00 c0       	rjmp	.+0      	; 0x1fc <sleepOpt+0x4c>
 1fc:	00 00       	nop
 1fe:	83 b7       	in	r24, 0x33	; 51
 200:	81 7f       	andi	r24, 0xF1	; 241
 202:	86 60       	ori	r24, 0x06	; 6
 204:	83 bf       	out	0x33, r24	; 51
 206:	83 b7       	in	r24, 0x33	; 51
 208:	81 60       	ori	r24, 0x01	; 1
 20a:	83 bf       	out	0x33, r24	; 51
 20c:	88 95       	sleep
 20e:	83 b7       	in	r24, 0x33	; 51
 210:	8e 7f       	andi	r24, 0xFE	; 254
 212:	83 bf       	out	0x33, r24	; 51
 214:	8f e9       	ldi	r24, 0x9F	; 159
 216:	9f e0       	ldi	r25, 0x0F	; 15
 218:	01 97       	sbiw	r24, 0x01	; 1
 21a:	f1 f7       	brne	.-4      	; 0x218 <sleepOpt+0x68>
 21c:	00 c0       	rjmp	.+0      	; 0x21e <sleepOpt+0x6e>
 21e:	00 00       	nop
 220:	23 c0       	rjmp	.+70     	; 0x268 <sleepOpt+0xb8>
 222:	89 ec       	ldi	r24, 0xC9	; 201
 224:	91 e0       	ldi	r25, 0x01	; 1
 226:	0e 94 6b 00 	call	0xd6	; 0xd6 <printm>
 22a:	8f e3       	ldi	r24, 0x3F	; 63
 22c:	9c e9       	ldi	r25, 0x9C	; 156
 22e:	01 97       	sbiw	r24, 0x01	; 1
 230:	f1 f7       	brne	.-4      	; 0x22e <sleepOpt+0x7e>
 232:	00 c0       	rjmp	.+0      	; 0x234 <sleepOpt+0x84>
 234:	00 00       	nop
 236:	83 b7       	in	r24, 0x33	; 51
 238:	81 7f       	andi	r24, 0xF1	; 241
 23a:	84 60       	ori	r24, 0x04	; 4
 23c:	83 bf       	out	0x33, r24	; 51
 23e:	83 b7       	in	r24, 0x33	; 51
 240:	81 60       	ori	r24, 0x01	; 1
 242:	83 bf       	out	0x33, r24	; 51
 244:	88 95       	sleep
 246:	83 b7       	in	r24, 0x33	; 51
 248:	8e 7f       	andi	r24, 0xFE	; 254
 24a:	83 bf       	out	0x33, r24	; 51
 24c:	8f e9       	ldi	r24, 0x9F	; 159
 24e:	9f e0       	ldi	r25, 0x0F	; 15
 250:	01 97       	sbiw	r24, 0x01	; 1
 252:	f1 f7       	brne	.-4      	; 0x250 <sleepOpt+0xa0>
 254:	00 c0       	rjmp	.+0      	; 0x256 <sleepOpt+0xa6>
 256:	00 00       	nop
 258:	07 c0       	rjmp	.+14     	; 0x268 <sleepOpt+0xb8>
 25a:	18 82       	st	Y, r1
 25c:	05 c0       	rjmp	.+10     	; 0x268 <sleepOpt+0xb8>
 25e:	18 82       	st	Y, r1
 260:	89 ee       	ldi	r24, 0xE9	; 233
 262:	91 e0       	ldi	r25, 0x01	; 1
 264:	0e 94 6b 00 	call	0xd6	; 0xd6 <printm>
 268:	df 91       	pop	r29
 26a:	cf 91       	pop	r28
 26c:	08 95       	ret

0000026e <ledControl>:
 26e:	cf 93       	push	r28
 270:	df 93       	push	r29
 272:	ec 01       	movw	r28, r24
 274:	8d e0       	ldi	r24, 0x0D	; 13
 276:	92 e0       	ldi	r25, 0x02	; 2
 278:	0e 94 6b 00 	call	0xd6	; 0xd6 <printm>
 27c:	8c e1       	ldi	r24, 0x1C	; 28
 27e:	92 e0       	ldi	r25, 0x02	; 2
 280:	0e 94 6b 00 	call	0xd6	; 0xd6 <printm>
 284:	8a e2       	ldi	r24, 0x2A	; 42
 286:	92 e0       	ldi	r25, 0x02	; 2
 288:	0e 94 6b 00 	call	0xd6	; 0xd6 <printm>
 28c:	82 e4       	ldi	r24, 0x42	; 66
 28e:	92 e0       	ldi	r25, 0x02	; 2
 290:	0e 94 6b 00 	call	0xd6	; 0xd6 <printm>
 294:	88 eb       	ldi	r24, 0xB8	; 184
 296:	91 e0       	ldi	r25, 0x01	; 1
 298:	0e 94 6b 00 	call	0xd6	; 0xd6 <printm>
 29c:	0e 94 53 00 	call	0xa6	; 0xa6 <getChar_>
 2a0:	82 33       	cpi	r24, 0x32	; 50
 2a2:	61 f0       	breq	.+24     	; 0x2bc <ledControl+0x4e>
 2a4:	18 f4       	brcc	.+6      	; 0x2ac <ledControl+0x3e>
 2a6:	81 33       	cpi	r24, 0x31	; 49
 2a8:	31 f0       	breq	.+12     	; 0x2b6 <ledControl+0x48>
 2aa:	10 c0       	rjmp	.+32     	; 0x2cc <ledControl+0x5e>
 2ac:	83 33       	cpi	r24, 0x33	; 51
 2ae:	49 f0       	breq	.+18     	; 0x2c2 <ledControl+0x54>
 2b0:	8d 36       	cpi	r24, 0x6D	; 109
 2b2:	51 f0       	breq	.+20     	; 0x2c8 <ledControl+0x5a>
 2b4:	0b c0       	rjmp	.+22     	; 0x2cc <ledControl+0x5e>
 2b6:	83 e0       	ldi	r24, 0x03	; 3
 2b8:	88 83       	st	Y, r24
 2ba:	0d c0       	rjmp	.+26     	; 0x2d6 <ledControl+0x68>
 2bc:	84 e0       	ldi	r24, 0x04	; 4
 2be:	88 83       	st	Y, r24
 2c0:	0a c0       	rjmp	.+20     	; 0x2d6 <ledControl+0x68>
 2c2:	85 e0       	ldi	r24, 0x05	; 5
 2c4:	88 83       	st	Y, r24
 2c6:	07 c0       	rjmp	.+14     	; 0x2d6 <ledControl+0x68>
 2c8:	18 82       	st	Y, r1
 2ca:	05 c0       	rjmp	.+10     	; 0x2d6 <ledControl+0x68>
 2cc:	18 82       	st	Y, r1
 2ce:	80 e6       	ldi	r24, 0x60	; 96
 2d0:	92 e0       	ldi	r25, 0x02	; 2
 2d2:	0e 94 6b 00 	call	0xd6	; 0xd6 <printm>
 2d6:	df 91       	pop	r29
 2d8:	cf 91       	pop	r28
 2da:	08 95       	ret

000002dc <ledOn>:
 2dc:	cf 93       	push	r28
 2de:	df 93       	push	r29
 2e0:	ec 01       	movw	r28, r24
 2e2:	55 9a       	sbi	0x0a, 5	; 10
 2e4:	89 e8       	ldi	r24, 0x89	; 137
 2e6:	92 e0       	ldi	r25, 0x02	; 2
 2e8:	0e 94 6b 00 	call	0xd6	; 0xd6 <printm>
 2ec:	8a e9       	ldi	r24, 0x9A	; 154
 2ee:	92 e0       	ldi	r25, 0x02	; 2
 2f0:	0e 94 6b 00 	call	0xd6	; 0xd6 <printm>
 2f4:	85 ea       	ldi	r24, 0xA5	; 165
 2f6:	92 e0       	ldi	r25, 0x02	; 2
 2f8:	0e 94 6b 00 	call	0xd6	; 0xd6 <printm>
 2fc:	0e 94 53 00 	call	0xa6	; 0xa6 <getChar_>
 300:	8e 36       	cpi	r24, 0x6E	; 110
 302:	31 f0       	breq	.+12     	; 0x310 <ledOn+0x34>
 304:	89 37       	cpi	r24, 0x79	; 121
 306:	39 f4       	brne	.+14     	; 0x316 <ledOn+0x3a>
 308:	55 98       	cbi	0x0a, 5	; 10
 30a:	82 e0       	ldi	r24, 0x02	; 2
 30c:	88 83       	st	Y, r24
 30e:	08 c0       	rjmp	.+16     	; 0x320 <ledOn+0x44>
 310:	82 e0       	ldi	r24, 0x02	; 2
 312:	88 83       	st	Y, r24
 314:	05 c0       	rjmp	.+10     	; 0x320 <ledOn+0x44>
 316:	18 82       	st	Y, r1
 318:	8f ea       	ldi	r24, 0xAF	; 175
 31a:	92 e0       	ldi	r25, 0x02	; 2
 31c:	0e 94 6b 00 	call	0xd6	; 0xd6 <printm>
 320:	df 91       	pop	r29
 322:	cf 91       	pop	r28
 324:	08 95       	ret

00000326 <ledBlink>:
 326:	ef 92       	push	r14
 328:	ff 92       	push	r15
 32a:	0f 93       	push	r16
 32c:	1f 93       	push	r17
 32e:	cf 93       	push	r28
 330:	df 93       	push	r29
 332:	61 e0       	ldi	r22, 0x01	; 1
 334:	70 e0       	ldi	r23, 0x00	; 0
 336:	88 e0       	ldi	r24, 0x08	; 8
 338:	90 e0       	ldi	r25, 0x00	; 0
 33a:	0e 94 22 03 	call	0x644	; 0x644 <calloc>
 33e:	8c 01       	movw	r16, r24
 340:	61 e0       	ldi	r22, 0x01	; 1
 342:	70 e0       	ldi	r23, 0x00	; 0
 344:	88 e0       	ldi	r24, 0x08	; 8
 346:	90 e0       	ldi	r25, 0x00	; 0
 348:	0e 94 22 03 	call	0x644	; 0x644 <calloc>
 34c:	7c 01       	movw	r14, r24
 34e:	55 98       	cbi	0x0a, 5	; 10
 350:	83 ed       	ldi	r24, 0xD3	; 211
 352:	92 e0       	ldi	r25, 0x02	; 2
 354:	0e 94 6b 00 	call	0xd6	; 0xd6 <printm>
 358:	8c ee       	ldi	r24, 0xEC	; 236
 35a:	92 e0       	ldi	r25, 0x02	; 2
 35c:	0e 94 6b 00 	call	0xd6	; 0xd6 <printm>
 360:	c8 01       	movw	r24, r16
 362:	0e 94 7a 00 	call	0xf4	; 0xf4 <scanm>
 366:	8c e1       	ldi	r24, 0x1C	; 28
 368:	93 e0       	ldi	r25, 0x03	; 3
 36a:	0e 94 6b 00 	call	0xd6	; 0xd6 <printm>
 36e:	c7 01       	movw	r24, r14
 370:	0e 94 7a 00 	call	0xf4	; 0xf4 <scanm>
 374:	8f e4       	ldi	r24, 0x4F	; 79
 376:	93 e0       	ldi	r25, 0x03	; 3
 378:	0e 94 6b 00 	call	0xd6	; 0xd6 <printm>
 37c:	80 91 c0 00 	lds	r24, 0x00C0	; 0x8000c0 <__TEXT_REGION_LENGTH__+0x7e00c0>
 380:	88 23       	and	r24, r24
 382:	8c f0       	brlt	.+34     	; 0x3a6 <ledBlink+0x80>
 384:	c0 ec       	ldi	r28, 0xC0	; 192
 386:	d0 e0       	ldi	r29, 0x00	; 0
 388:	55 9a       	sbi	0x0a, 5	; 10
 38a:	c8 01       	movw	r24, r16
 38c:	0e 94 5f 04 	call	0x8be	; 0x8be <atoi>
 390:	0e 94 98 00 	call	0x130	; 0x130 <delay_ms>
 394:	55 98       	cbi	0x0a, 5	; 10
 396:	c7 01       	movw	r24, r14
 398:	0e 94 5f 04 	call	0x8be	; 0x8be <atoi>
 39c:	0e 94 98 00 	call	0x130	; 0x130 <delay_ms>
 3a0:	88 81       	ld	r24, Y
 3a2:	88 23       	and	r24, r24
 3a4:	8c f7       	brge	.-30     	; 0x388 <ledBlink+0x62>
 3a6:	e1 ec       	ldi	r30, 0xC1	; 193
 3a8:	f0 e0       	ldi	r31, 0x00	; 0
 3aa:	80 81       	ld	r24, Z
 3ac:	8f 7e       	andi	r24, 0xEF	; 239
 3ae:	80 83       	st	Z, r24
 3b0:	80 81       	ld	r24, Z
 3b2:	80 61       	ori	r24, 0x10	; 16
 3b4:	80 83       	st	Z, r24
 3b6:	c8 01       	movw	r24, r16
 3b8:	0e 94 d6 03 	call	0x7ac	; 0x7ac <free>
 3bc:	c7 01       	movw	r24, r14
 3be:	0e 94 d6 03 	call	0x7ac	; 0x7ac <free>
 3c2:	df 91       	pop	r29
 3c4:	cf 91       	pop	r28
 3c6:	1f 91       	pop	r17
 3c8:	0f 91       	pop	r16
 3ca:	ff 90       	pop	r15
 3cc:	ef 90       	pop	r14
 3ce:	08 95       	ret

000003d0 <moreLedOptions>:
 3d0:	0f 93       	push	r16
 3d2:	1f 93       	push	r17
 3d4:	cf 93       	push	r28
 3d6:	df 93       	push	r29
 3d8:	8c 01       	movw	r16, r24
 3da:	61 e0       	ldi	r22, 0x01	; 1
 3dc:	70 e0       	ldi	r23, 0x00	; 0
 3de:	88 e0       	ldi	r24, 0x08	; 8
 3e0:	90 e0       	ldi	r25, 0x00	; 0
 3e2:	0e 94 22 03 	call	0x644	; 0x644 <calloc>
 3e6:	ec 01       	movw	r28, r24
 3e8:	87 e6       	ldi	r24, 0x67	; 103
 3ea:	93 e0       	ldi	r25, 0x03	; 3
 3ec:	0e 94 6b 00 	call	0xd6	; 0xd6 <printm>
 3f0:	8c e7       	ldi	r24, 0x7C	; 124
 3f2:	93 e0       	ldi	r25, 0x03	; 3
 3f4:	0e 94 6b 00 	call	0xd6	; 0xd6 <printm>
 3f8:	80 e9       	ldi	r24, 0x90	; 144
 3fa:	93 e0       	ldi	r25, 0x03	; 3
 3fc:	0e 94 6b 00 	call	0xd6	; 0xd6 <printm>
 400:	89 ea       	ldi	r24, 0xA9	; 169
 402:	93 e0       	ldi	r25, 0x03	; 3
 404:	0e 94 6b 00 	call	0xd6	; 0xd6 <printm>
 408:	85 e7       	ldi	r24, 0x75	; 117
 40a:	94 e0       	ldi	r25, 0x04	; 4
 40c:	0e 94 6b 00 	call	0xd6	; 0xd6 <printm>
 410:	89 eb       	ldi	r24, 0xB9	; 185
 412:	91 e0       	ldi	r25, 0x01	; 1
 414:	0e 94 6b 00 	call	0xd6	; 0xd6 <printm>
 418:	0e 94 53 00 	call	0xa6	; 0xa6 <getChar_>
 41c:	83 33       	cpi	r24, 0x33	; 51
 41e:	f9 f0       	breq	.+62     	; 0x45e <__LOCK_REGION_LENGTH__+0x5e>
 420:	28 f4       	brcc	.+10     	; 0x42c <__LOCK_REGION_LENGTH__+0x2c>
 422:	81 33       	cpi	r24, 0x31	; 49
 424:	41 f0       	breq	.+16     	; 0x436 <__LOCK_REGION_LENGTH__+0x36>
 426:	82 33       	cpi	r24, 0x32	; 50
 428:	51 f0       	breq	.+20     	; 0x43e <__LOCK_REGION_LENGTH__+0x3e>
 42a:	23 c0       	rjmp	.+70     	; 0x472 <__LOCK_REGION_LENGTH__+0x72>
 42c:	82 36       	cpi	r24, 0x62	; 98
 42e:	d1 f0       	breq	.+52     	; 0x464 <__LOCK_REGION_LENGTH__+0x64>
 430:	8d 36       	cpi	r24, 0x6D	; 109
 432:	e1 f0       	breq	.+56     	; 0x46c <__LOCK_REGION_LENGTH__+0x6c>
 434:	1e c0       	rjmp	.+60     	; 0x472 <__LOCK_REGION_LENGTH__+0x72>
 436:	82 e0       	ldi	r24, 0x02	; 2
 438:	f8 01       	movw	r30, r16
 43a:	80 83       	st	Z, r24
 43c:	1e c0       	rjmp	.+60     	; 0x47a <__LOCK_REGION_LENGTH__+0x7a>
 43e:	55 98       	cbi	0x0a, 5	; 10
 440:	83 ec       	ldi	r24, 0xC3	; 195
 442:	93 e0       	ldi	r25, 0x03	; 3
 444:	0e 94 6b 00 	call	0xd6	; 0xd6 <printm>
 448:	ce 01       	movw	r24, r28
 44a:	0e 94 7a 00 	call	0xf4	; 0xf4 <scanm>
 44e:	55 9a       	sbi	0x0a, 5	; 10
 450:	ce 01       	movw	r24, r28
 452:	0e 94 5f 04 	call	0x8be	; 0x8be <atoi>
 456:	0e 94 98 00 	call	0x130	; 0x130 <delay_ms>
 45a:	55 98       	cbi	0x0a, 5	; 10
 45c:	0e c0       	rjmp	.+28     	; 0x47a <__LOCK_REGION_LENGTH__+0x7a>
 45e:	0e 94 93 01 	call	0x326	; 0x326 <ledBlink>
 462:	0b c0       	rjmp	.+22     	; 0x47a <__LOCK_REGION_LENGTH__+0x7a>
 464:	82 e0       	ldi	r24, 0x02	; 2
 466:	f8 01       	movw	r30, r16
 468:	80 83       	st	Z, r24
 46a:	07 c0       	rjmp	.+14     	; 0x47a <__LOCK_REGION_LENGTH__+0x7a>
 46c:	f8 01       	movw	r30, r16
 46e:	10 82       	st	Z, r1
 470:	04 c0       	rjmp	.+8      	; 0x47a <__LOCK_REGION_LENGTH__+0x7a>
 472:	8a ef       	ldi	r24, 0xFA	; 250
 474:	93 e0       	ldi	r25, 0x03	; 3
 476:	0e 94 6b 00 	call	0xd6	; 0xd6 <printm>
 47a:	ce 01       	movw	r24, r28
 47c:	0e 94 d6 03 	call	0x7ac	; 0x7ac <free>
 480:	df 91       	pop	r29
 482:	cf 91       	pop	r28
 484:	1f 91       	pop	r17
 486:	0f 91       	pop	r16
 488:	08 95       	ret

0000048a <ledBright>:
 48a:	0f 93       	push	r16
 48c:	1f 93       	push	r17
 48e:	cf 93       	push	r28
 490:	df 93       	push	r29
 492:	8c 01       	movw	r16, r24
 494:	61 e0       	ldi	r22, 0x01	; 1
 496:	70 e0       	ldi	r23, 0x00	; 0
 498:	88 e0       	ldi	r24, 0x08	; 8
 49a:	90 e0       	ldi	r25, 0x00	; 0
 49c:	0e 94 22 03 	call	0x644	; 0x644 <calloc>
 4a0:	ec 01       	movw	r28, r24
 4a2:	55 9a       	sbi	0x0a, 5	; 10
 4a4:	87 e2       	ldi	r24, 0x27	; 39
 4a6:	94 e0       	ldi	r25, 0x04	; 4
 4a8:	0e 94 6b 00 	call	0xd6	; 0xd6 <printm>
 4ac:	81 e4       	ldi	r24, 0x41	; 65
 4ae:	94 e0       	ldi	r25, 0x04	; 4
 4b0:	0e 94 6b 00 	call	0xd6	; 0xd6 <printm>
 4b4:	8c e4       	ldi	r24, 0x4C	; 76
 4b6:	94 e0       	ldi	r25, 0x04	; 4
 4b8:	0e 94 6b 00 	call	0xd6	; 0xd6 <printm>
 4bc:	8a e5       	ldi	r24, 0x5A	; 90
 4be:	94 e0       	ldi	r25, 0x04	; 4
 4c0:	0e 94 6b 00 	call	0xd6	; 0xd6 <printm>
 4c4:	86 e6       	ldi	r24, 0x66	; 102
 4c6:	94 e0       	ldi	r25, 0x04	; 4
 4c8:	0e 94 6b 00 	call	0xd6	; 0xd6 <printm>
 4cc:	84 e7       	ldi	r24, 0x74	; 116
 4ce:	94 e0       	ldi	r25, 0x04	; 4
 4d0:	0e 94 6b 00 	call	0xd6	; 0xd6 <printm>
 4d4:	88 eb       	ldi	r24, 0xB8	; 184
 4d6:	91 e0       	ldi	r25, 0x01	; 1
 4d8:	0e 94 6b 00 	call	0xd6	; 0xd6 <printm>
 4dc:	0e 94 53 00 	call	0xa6	; 0xa6 <getChar_>
 4e0:	83 33       	cpi	r24, 0x33	; 51
 4e2:	99 f0       	breq	.+38     	; 0x50a <ledBright+0x80>
 4e4:	28 f4       	brcc	.+10     	; 0x4f0 <ledBright+0x66>
 4e6:	81 33       	cpi	r24, 0x31	; 49
 4e8:	51 f0       	breq	.+20     	; 0x4fe <ledBright+0x74>
 4ea:	82 33       	cpi	r24, 0x32	; 50
 4ec:	59 f0       	breq	.+22     	; 0x504 <ledBright+0x7a>
 4ee:	2e c0       	rjmp	.+92     	; 0x54c <ledBright+0xc2>
 4f0:	82 36       	cpi	r24, 0x62	; 98
 4f2:	29 f1       	breq	.+74     	; 0x53e <ledBright+0xb4>
 4f4:	8d 36       	cpi	r24, 0x6D	; 109
 4f6:	39 f1       	breq	.+78     	; 0x546 <ledBright+0xbc>
 4f8:	84 33       	cpi	r24, 0x34	; 52
 4fa:	41 f5       	brne	.+80     	; 0x54c <ledBright+0xc2>
 4fc:	09 c0       	rjmp	.+18     	; 0x510 <ledBright+0x86>
 4fe:	8a e1       	ldi	r24, 0x1A	; 26
 500:	87 bd       	out	0x27, r24	; 39
 502:	28 c0       	rjmp	.+80     	; 0x554 <ledBright+0xca>
 504:	80 e8       	ldi	r24, 0x80	; 128
 506:	87 bd       	out	0x27, r24	; 39
 508:	25 c0       	rjmp	.+74     	; 0x554 <ledBright+0xca>
 50a:	86 ee       	ldi	r24, 0xE6	; 230
 50c:	87 bd       	out	0x27, r24	; 39
 50e:	22 c0       	rjmp	.+68     	; 0x554 <ledBright+0xca>
 510:	80 e8       	ldi	r24, 0x80	; 128
 512:	94 e0       	ldi	r25, 0x04	; 4
 514:	0e 94 6b 00 	call	0xd6	; 0xd6 <printm>
 518:	ce 01       	movw	r24, r28
 51a:	0e 94 7a 00 	call	0xf4	; 0xf4 <scanm>
 51e:	ce 01       	movw	r24, r28
 520:	0e 94 5f 04 	call	0x8be	; 0x8be <atoi>
 524:	2f ef       	ldi	r18, 0xFF	; 255
 526:	ac 01       	movw	r20, r24
 528:	24 9f       	mul	r18, r20
 52a:	c0 01       	movw	r24, r0
 52c:	25 9f       	mul	r18, r21
 52e:	90 0d       	add	r25, r0
 530:	11 24       	eor	r1, r1
 532:	64 e6       	ldi	r22, 0x64	; 100
 534:	70 e0       	ldi	r23, 0x00	; 0
 536:	0e 94 fa 02 	call	0x5f4	; 0x5f4 <__divmodhi4>
 53a:	67 bd       	out	0x27, r22	; 39
 53c:	0b c0       	rjmp	.+22     	; 0x554 <ledBright+0xca>
 53e:	84 e0       	ldi	r24, 0x04	; 4
 540:	f8 01       	movw	r30, r16
 542:	80 83       	st	Z, r24
 544:	07 c0       	rjmp	.+14     	; 0x554 <ledBright+0xca>
 546:	f8 01       	movw	r30, r16
 548:	10 82       	st	Z, r1
 54a:	04 c0       	rjmp	.+8      	; 0x554 <ledBright+0xca>
 54c:	86 ea       	ldi	r24, 0xA6	; 166
 54e:	94 e0       	ldi	r25, 0x04	; 4
 550:	0e 94 6b 00 	call	0xd6	; 0xd6 <printm>
 554:	ce 01       	movw	r24, r28
 556:	0e 94 d6 03 	call	0x7ac	; 0x7ac <free>
 55a:	df 91       	pop	r29
 55c:	cf 91       	pop	r28
 55e:	1f 91       	pop	r17
 560:	0f 91       	pop	r16
 562:	08 95       	ret

00000564 <TC0_FAST_PWM_D_TOP>:
	  //OC1A AND OC1B as outputs for PWM
	  DDRB |= (1<<PB1)|(1<<PB2);

	  TCCR1A = (1<<COM1A1)|(1<<COM1B1);
	  TC1_FAST_PWM_S_TOP();
	  TC1_PRESCALING_64();
 564:	85 b5       	in	r24, 0x25	; 37
 566:	87 7f       	andi	r24, 0xF7	; 247
 568:	85 bd       	out	0x25, r24	; 37
 56a:	84 b5       	in	r24, 0x24	; 36
 56c:	83 60       	ori	r24, 0x03	; 3
 56e:	84 bd       	out	0x24, r24	; 36
 570:	08 95       	ret

00000572 <TC0_NOPRESCALING>:
 572:	85 b5       	in	r24, 0x25	; 37
 574:	8b 7f       	andi	r24, 0xFB	; 251
 576:	85 bd       	out	0x25, r24	; 37
 578:	85 b5       	in	r24, 0x25	; 37
 57a:	8d 7f       	andi	r24, 0xFD	; 253
 57c:	85 bd       	out	0x25, r24	; 37
 57e:	85 b5       	in	r24, 0x25	; 37
 580:	81 60       	ori	r24, 0x01	; 1
 582:	85 bd       	out	0x25, r24	; 37
 584:	08 95       	ret

00000586 <main>:
int main(void)
{
	//FAST PWM  TOP 0xFF
	//NON-INVERTING
	//No Prescaling
	TC0_FAST_PWM_D_TOP();
 586:	0e 94 b2 02 	call	0x564	; 0x564 <TC0_FAST_PWM_D_TOP>
	TCCR0A |= (1<<COM0A1);
 58a:	84 b5       	in	r24, 0x24	; 36
 58c:	80 68       	ori	r24, 0x80	; 128
 58e:	84 bd       	out	0x24, r24	; 36
	TC0_NOPRESCALING();
 590:	0e 94 b9 02 	call	0x572	; 0x572 <TC0_NOPRESCALING>
	//Initially at 50% duty cycle
	OCR0A = 128;
 594:	80 e8       	ldi	r24, 0x80	; 128
 596:	87 bd       	out	0x27, r24	; 39

  States* currentState = (States*)calloc(1,sizeof(States));
 598:	61 e0       	ldi	r22, 0x01	; 1
 59a:	70 e0       	ldi	r23, 0x00	; 0
 59c:	81 e0       	ldi	r24, 0x01	; 1
 59e:	90 e0       	ldi	r25, 0x00	; 0
 5a0:	0e 94 22 03 	call	0x644	; 0x644 <calloc>
 5a4:	ec 01       	movw	r28, r24
  *currentState = mymain;
 5a6:	18 82       	st	Y, r1
   while (1){
	   switch (*currentState){	
 5a8:	88 81       	ld	r24, Y
 5aa:	83 30       	cpi	r24, 0x03	; 3
 5ac:	99 f0       	breq	.+38     	; 0x5d4 <main+0x4e>
 5ae:	28 f4       	brcc	.+10     	; 0x5ba <main+0x34>
 5b0:	81 30       	cpi	r24, 0x01	; 1
 5b2:	41 f0       	breq	.+16     	; 0x5c4 <main+0x3e>
 5b4:	82 30       	cpi	r24, 0x02	; 2
 5b6:	51 f0       	breq	.+20     	; 0x5cc <main+0x46>
 5b8:	19 c0       	rjmp	.+50     	; 0x5ec <main+0x66>
 5ba:	84 30       	cpi	r24, 0x04	; 4
 5bc:	79 f0       	breq	.+30     	; 0x5dc <main+0x56>
 5be:	85 30       	cpi	r24, 0x05	; 5
 5c0:	89 f0       	breq	.+34     	; 0x5e4 <main+0x5e>
 5c2:	14 c0       	rjmp	.+40     	; 0x5ec <main+0x66>
		   case sleep:sleepOpt(currentState);break;
 5c4:	ce 01       	movw	r24, r28
 5c6:	0e 94 d8 00 	call	0x1b0	; 0x1b0 <sleepOpt>
 5ca:	ee cf       	rjmp	.-36     	; 0x5a8 <main+0x22>
		   case ledOpt:	ledControl(currentState);break;
 5cc:	ce 01       	movw	r24, r28
 5ce:	0e 94 37 01 	call	0x26e	; 0x26e <ledControl>
 5d2:	ea cf       	rjmp	.-44     	; 0x5a8 <main+0x22>
		   case ledOnOpt:ledOn(currentState);break;
 5d4:	ce 01       	movw	r24, r28
 5d6:	0e 94 6e 01 	call	0x2dc	; 0x2dc <ledOn>
 5da:	e6 cf       	rjmp	.-52     	; 0x5a8 <main+0x22>
		   case moreLedOpt:moreLedOptions(currentState);break;
 5dc:	ce 01       	movw	r24, r28
 5de:	0e 94 e8 01 	call	0x3d0	; 0x3d0 <moreLedOptions>
 5e2:	e2 cf       	rjmp	.-60     	; 0x5a8 <main+0x22>
		   case changeBright:ledBright(currentState);break;
 5e4:	ce 01       	movw	r24, r28
 5e6:	0e 94 45 02 	call	0x48a	; 0x48a <ledBright>
 5ea:	de cf       	rjmp	.-68     	; 0x5a8 <main+0x22>
		   default:mymainMenu(currentState);
 5ec:	ce 01       	movw	r24, r28
 5ee:	0e 94 a9 00 	call	0x152	; 0x152 <mymainMenu>
		   break;
 5f2:	da cf       	rjmp	.-76     	; 0x5a8 <main+0x22>

000005f4 <__divmodhi4>:
 5f4:	97 fb       	bst	r25, 7
 5f6:	07 2e       	mov	r0, r23
 5f8:	16 f4       	brtc	.+4      	; 0x5fe <__divmodhi4+0xa>
 5fa:	00 94       	com	r0
 5fc:	07 d0       	rcall	.+14     	; 0x60c <__divmodhi4_neg1>
 5fe:	77 fd       	sbrc	r23, 7
 600:	09 d0       	rcall	.+18     	; 0x614 <__divmodhi4_neg2>
 602:	0e 94 0e 03 	call	0x61c	; 0x61c <__udivmodhi4>
 606:	07 fc       	sbrc	r0, 7
 608:	05 d0       	rcall	.+10     	; 0x614 <__divmodhi4_neg2>
 60a:	3e f4       	brtc	.+14     	; 0x61a <__divmodhi4_exit>

0000060c <__divmodhi4_neg1>:
 60c:	90 95       	com	r25
 60e:	81 95       	neg	r24
 610:	9f 4f       	sbci	r25, 0xFF	; 255
 612:	08 95       	ret

00000614 <__divmodhi4_neg2>:
 614:	70 95       	com	r23
 616:	61 95       	neg	r22
 618:	7f 4f       	sbci	r23, 0xFF	; 255

0000061a <__divmodhi4_exit>:
 61a:	08 95       	ret

0000061c <__udivmodhi4>:
 61c:	aa 1b       	sub	r26, r26
 61e:	bb 1b       	sub	r27, r27
 620:	51 e1       	ldi	r21, 0x11	; 17
 622:	07 c0       	rjmp	.+14     	; 0x632 <__udivmodhi4_ep>

00000624 <__udivmodhi4_loop>:
 624:	aa 1f       	adc	r26, r26
 626:	bb 1f       	adc	r27, r27
 628:	a6 17       	cp	r26, r22
 62a:	b7 07       	cpc	r27, r23
 62c:	10 f0       	brcs	.+4      	; 0x632 <__udivmodhi4_ep>
 62e:	a6 1b       	sub	r26, r22
 630:	b7 0b       	sbc	r27, r23

00000632 <__udivmodhi4_ep>:
 632:	88 1f       	adc	r24, r24
 634:	99 1f       	adc	r25, r25
 636:	5a 95       	dec	r21
 638:	a9 f7       	brne	.-22     	; 0x624 <__udivmodhi4_loop>
 63a:	80 95       	com	r24
 63c:	90 95       	com	r25
 63e:	bc 01       	movw	r22, r24
 640:	cd 01       	movw	r24, r26
 642:	08 95       	ret

00000644 <calloc>:
 644:	0f 93       	push	r16
 646:	1f 93       	push	r17
 648:	cf 93       	push	r28
 64a:	df 93       	push	r29
 64c:	86 9f       	mul	r24, r22
 64e:	80 01       	movw	r16, r0
 650:	87 9f       	mul	r24, r23
 652:	10 0d       	add	r17, r0
 654:	96 9f       	mul	r25, r22
 656:	10 0d       	add	r17, r0
 658:	11 24       	eor	r1, r1
 65a:	c8 01       	movw	r24, r16
 65c:	0e 94 3e 03 	call	0x67c	; 0x67c <malloc>
 660:	ec 01       	movw	r28, r24
 662:	00 97       	sbiw	r24, 0x00	; 0
 664:	29 f0       	breq	.+10     	; 0x670 <calloc+0x2c>
 666:	a8 01       	movw	r20, r16
 668:	60 e0       	ldi	r22, 0x00	; 0
 66a:	70 e0       	ldi	r23, 0x00	; 0
 66c:	0e 94 7d 04 	call	0x8fa	; 0x8fa <memset>
 670:	ce 01       	movw	r24, r28
 672:	df 91       	pop	r29
 674:	cf 91       	pop	r28
 676:	1f 91       	pop	r17
 678:	0f 91       	pop	r16
 67a:	08 95       	ret

0000067c <malloc>:
 67c:	0f 93       	push	r16
 67e:	1f 93       	push	r17
 680:	cf 93       	push	r28
 682:	df 93       	push	r29
 684:	82 30       	cpi	r24, 0x02	; 2
 686:	91 05       	cpc	r25, r1
 688:	10 f4       	brcc	.+4      	; 0x68e <malloc+0x12>
 68a:	82 e0       	ldi	r24, 0x02	; 2
 68c:	90 e0       	ldi	r25, 0x00	; 0
 68e:	e0 91 d0 04 	lds	r30, 0x04D0	; 0x8004d0 <__flp>
 692:	f0 91 d1 04 	lds	r31, 0x04D1	; 0x8004d1 <__flp+0x1>
 696:	20 e0       	ldi	r18, 0x00	; 0
 698:	30 e0       	ldi	r19, 0x00	; 0
 69a:	a0 e0       	ldi	r26, 0x00	; 0
 69c:	b0 e0       	ldi	r27, 0x00	; 0
 69e:	30 97       	sbiw	r30, 0x00	; 0
 6a0:	19 f1       	breq	.+70     	; 0x6e8 <malloc+0x6c>
 6a2:	40 81       	ld	r20, Z
 6a4:	51 81       	ldd	r21, Z+1	; 0x01
 6a6:	02 81       	ldd	r16, Z+2	; 0x02
 6a8:	13 81       	ldd	r17, Z+3	; 0x03
 6aa:	48 17       	cp	r20, r24
 6ac:	59 07       	cpc	r21, r25
 6ae:	c8 f0       	brcs	.+50     	; 0x6e2 <malloc+0x66>
 6b0:	84 17       	cp	r24, r20
 6b2:	95 07       	cpc	r25, r21
 6b4:	69 f4       	brne	.+26     	; 0x6d0 <malloc+0x54>
 6b6:	10 97       	sbiw	r26, 0x00	; 0
 6b8:	31 f0       	breq	.+12     	; 0x6c6 <malloc+0x4a>
 6ba:	12 96       	adiw	r26, 0x02	; 2
 6bc:	0c 93       	st	X, r16
 6be:	12 97       	sbiw	r26, 0x02	; 2
 6c0:	13 96       	adiw	r26, 0x03	; 3
 6c2:	1c 93       	st	X, r17
 6c4:	27 c0       	rjmp	.+78     	; 0x714 <malloc+0x98>
 6c6:	00 93 d0 04 	sts	0x04D0, r16	; 0x8004d0 <__flp>
 6ca:	10 93 d1 04 	sts	0x04D1, r17	; 0x8004d1 <__flp+0x1>
 6ce:	22 c0       	rjmp	.+68     	; 0x714 <malloc+0x98>
 6d0:	21 15       	cp	r18, r1
 6d2:	31 05       	cpc	r19, r1
 6d4:	19 f0       	breq	.+6      	; 0x6dc <malloc+0x60>
 6d6:	42 17       	cp	r20, r18
 6d8:	53 07       	cpc	r21, r19
 6da:	18 f4       	brcc	.+6      	; 0x6e2 <malloc+0x66>
 6dc:	9a 01       	movw	r18, r20
 6de:	bd 01       	movw	r22, r26
 6e0:	ef 01       	movw	r28, r30
 6e2:	df 01       	movw	r26, r30
 6e4:	f8 01       	movw	r30, r16
 6e6:	db cf       	rjmp	.-74     	; 0x69e <malloc+0x22>
 6e8:	21 15       	cp	r18, r1
 6ea:	31 05       	cpc	r19, r1
 6ec:	f9 f0       	breq	.+62     	; 0x72c <malloc+0xb0>
 6ee:	28 1b       	sub	r18, r24
 6f0:	39 0b       	sbc	r19, r25
 6f2:	24 30       	cpi	r18, 0x04	; 4
 6f4:	31 05       	cpc	r19, r1
 6f6:	80 f4       	brcc	.+32     	; 0x718 <malloc+0x9c>
 6f8:	8a 81       	ldd	r24, Y+2	; 0x02
 6fa:	9b 81       	ldd	r25, Y+3	; 0x03
 6fc:	61 15       	cp	r22, r1
 6fe:	71 05       	cpc	r23, r1
 700:	21 f0       	breq	.+8      	; 0x70a <malloc+0x8e>
 702:	fb 01       	movw	r30, r22
 704:	93 83       	std	Z+3, r25	; 0x03
 706:	82 83       	std	Z+2, r24	; 0x02
 708:	04 c0       	rjmp	.+8      	; 0x712 <malloc+0x96>
 70a:	90 93 d1 04 	sts	0x04D1, r25	; 0x8004d1 <__flp+0x1>
 70e:	80 93 d0 04 	sts	0x04D0, r24	; 0x8004d0 <__flp>
 712:	fe 01       	movw	r30, r28
 714:	32 96       	adiw	r30, 0x02	; 2
 716:	44 c0       	rjmp	.+136    	; 0x7a0 <malloc+0x124>
 718:	fe 01       	movw	r30, r28
 71a:	e2 0f       	add	r30, r18
 71c:	f3 1f       	adc	r31, r19
 71e:	81 93       	st	Z+, r24
 720:	91 93       	st	Z+, r25
 722:	22 50       	subi	r18, 0x02	; 2
 724:	31 09       	sbc	r19, r1
 726:	39 83       	std	Y+1, r19	; 0x01
 728:	28 83       	st	Y, r18
 72a:	3a c0       	rjmp	.+116    	; 0x7a0 <malloc+0x124>
 72c:	20 91 ce 04 	lds	r18, 0x04CE	; 0x8004ce <__data_end>
 730:	30 91 cf 04 	lds	r19, 0x04CF	; 0x8004cf <__data_end+0x1>
 734:	23 2b       	or	r18, r19
 736:	41 f4       	brne	.+16     	; 0x748 <malloc+0xcc>
 738:	20 91 02 01 	lds	r18, 0x0102	; 0x800102 <__malloc_heap_start>
 73c:	30 91 03 01 	lds	r19, 0x0103	; 0x800103 <__malloc_heap_start+0x1>
 740:	30 93 cf 04 	sts	0x04CF, r19	; 0x8004cf <__data_end+0x1>
 744:	20 93 ce 04 	sts	0x04CE, r18	; 0x8004ce <__data_end>
 748:	20 91 00 01 	lds	r18, 0x0100	; 0x800100 <__data_start>
 74c:	30 91 01 01 	lds	r19, 0x0101	; 0x800101 <__data_start+0x1>
 750:	21 15       	cp	r18, r1
 752:	31 05       	cpc	r19, r1
 754:	41 f4       	brne	.+16     	; 0x766 <malloc+0xea>
 756:	2d b7       	in	r18, 0x3d	; 61
 758:	3e b7       	in	r19, 0x3e	; 62
 75a:	40 91 04 01 	lds	r20, 0x0104	; 0x800104 <__malloc_margin>
 75e:	50 91 05 01 	lds	r21, 0x0105	; 0x800105 <__malloc_margin+0x1>
 762:	24 1b       	sub	r18, r20
 764:	35 0b       	sbc	r19, r21
 766:	e0 91 ce 04 	lds	r30, 0x04CE	; 0x8004ce <__data_end>
 76a:	f0 91 cf 04 	lds	r31, 0x04CF	; 0x8004cf <__data_end+0x1>
 76e:	e2 17       	cp	r30, r18
 770:	f3 07       	cpc	r31, r19
 772:	a0 f4       	brcc	.+40     	; 0x79c <malloc+0x120>
 774:	2e 1b       	sub	r18, r30
 776:	3f 0b       	sbc	r19, r31
 778:	28 17       	cp	r18, r24
 77a:	39 07       	cpc	r19, r25
 77c:	78 f0       	brcs	.+30     	; 0x79c <malloc+0x120>
 77e:	ac 01       	movw	r20, r24
 780:	4e 5f       	subi	r20, 0xFE	; 254
 782:	5f 4f       	sbci	r21, 0xFF	; 255
 784:	24 17       	cp	r18, r20
 786:	35 07       	cpc	r19, r21
 788:	48 f0       	brcs	.+18     	; 0x79c <malloc+0x120>
 78a:	4e 0f       	add	r20, r30
 78c:	5f 1f       	adc	r21, r31
 78e:	50 93 cf 04 	sts	0x04CF, r21	; 0x8004cf <__data_end+0x1>
 792:	40 93 ce 04 	sts	0x04CE, r20	; 0x8004ce <__data_end>
 796:	81 93       	st	Z+, r24
 798:	91 93       	st	Z+, r25
 79a:	02 c0       	rjmp	.+4      	; 0x7a0 <malloc+0x124>
 79c:	e0 e0       	ldi	r30, 0x00	; 0
 79e:	f0 e0       	ldi	r31, 0x00	; 0
 7a0:	cf 01       	movw	r24, r30
 7a2:	df 91       	pop	r29
 7a4:	cf 91       	pop	r28
 7a6:	1f 91       	pop	r17
 7a8:	0f 91       	pop	r16
 7aa:	08 95       	ret

000007ac <free>:
 7ac:	cf 93       	push	r28
 7ae:	df 93       	push	r29
 7b0:	00 97       	sbiw	r24, 0x00	; 0
 7b2:	09 f4       	brne	.+2      	; 0x7b6 <free+0xa>
 7b4:	81 c0       	rjmp	.+258    	; 0x8b8 <free+0x10c>
 7b6:	fc 01       	movw	r30, r24
 7b8:	32 97       	sbiw	r30, 0x02	; 2
 7ba:	13 82       	std	Z+3, r1	; 0x03
 7bc:	12 82       	std	Z+2, r1	; 0x02
 7be:	a0 91 d0 04 	lds	r26, 0x04D0	; 0x8004d0 <__flp>
 7c2:	b0 91 d1 04 	lds	r27, 0x04D1	; 0x8004d1 <__flp+0x1>
 7c6:	10 97       	sbiw	r26, 0x00	; 0
 7c8:	81 f4       	brne	.+32     	; 0x7ea <free+0x3e>
 7ca:	20 81       	ld	r18, Z
 7cc:	31 81       	ldd	r19, Z+1	; 0x01
 7ce:	82 0f       	add	r24, r18
 7d0:	93 1f       	adc	r25, r19
 7d2:	20 91 ce 04 	lds	r18, 0x04CE	; 0x8004ce <__data_end>
 7d6:	30 91 cf 04 	lds	r19, 0x04CF	; 0x8004cf <__data_end+0x1>
 7da:	28 17       	cp	r18, r24
 7dc:	39 07       	cpc	r19, r25
 7de:	51 f5       	brne	.+84     	; 0x834 <free+0x88>
 7e0:	f0 93 cf 04 	sts	0x04CF, r31	; 0x8004cf <__data_end+0x1>
 7e4:	e0 93 ce 04 	sts	0x04CE, r30	; 0x8004ce <__data_end>
 7e8:	67 c0       	rjmp	.+206    	; 0x8b8 <free+0x10c>
 7ea:	ed 01       	movw	r28, r26
 7ec:	20 e0       	ldi	r18, 0x00	; 0
 7ee:	30 e0       	ldi	r19, 0x00	; 0
 7f0:	ce 17       	cp	r28, r30
 7f2:	df 07       	cpc	r29, r31
 7f4:	40 f4       	brcc	.+16     	; 0x806 <free+0x5a>
 7f6:	4a 81       	ldd	r20, Y+2	; 0x02
 7f8:	5b 81       	ldd	r21, Y+3	; 0x03
 7fa:	9e 01       	movw	r18, r28
 7fc:	41 15       	cp	r20, r1
 7fe:	51 05       	cpc	r21, r1
 800:	f1 f0       	breq	.+60     	; 0x83e <free+0x92>
 802:	ea 01       	movw	r28, r20
 804:	f5 cf       	rjmp	.-22     	; 0x7f0 <free+0x44>
 806:	d3 83       	std	Z+3, r29	; 0x03
 808:	c2 83       	std	Z+2, r28	; 0x02
 80a:	40 81       	ld	r20, Z
 80c:	51 81       	ldd	r21, Z+1	; 0x01
 80e:	84 0f       	add	r24, r20
 810:	95 1f       	adc	r25, r21
 812:	c8 17       	cp	r28, r24
 814:	d9 07       	cpc	r29, r25
 816:	59 f4       	brne	.+22     	; 0x82e <free+0x82>
 818:	88 81       	ld	r24, Y
 81a:	99 81       	ldd	r25, Y+1	; 0x01
 81c:	84 0f       	add	r24, r20
 81e:	95 1f       	adc	r25, r21
 820:	02 96       	adiw	r24, 0x02	; 2
 822:	91 83       	std	Z+1, r25	; 0x01
 824:	80 83       	st	Z, r24
 826:	8a 81       	ldd	r24, Y+2	; 0x02
 828:	9b 81       	ldd	r25, Y+3	; 0x03
 82a:	93 83       	std	Z+3, r25	; 0x03
 82c:	82 83       	std	Z+2, r24	; 0x02
 82e:	21 15       	cp	r18, r1
 830:	31 05       	cpc	r19, r1
 832:	29 f4       	brne	.+10     	; 0x83e <free+0x92>
 834:	f0 93 d1 04 	sts	0x04D1, r31	; 0x8004d1 <__flp+0x1>
 838:	e0 93 d0 04 	sts	0x04D0, r30	; 0x8004d0 <__flp>
 83c:	3d c0       	rjmp	.+122    	; 0x8b8 <free+0x10c>
 83e:	e9 01       	movw	r28, r18
 840:	fb 83       	std	Y+3, r31	; 0x03
 842:	ea 83       	std	Y+2, r30	; 0x02
 844:	49 91       	ld	r20, Y+
 846:	59 91       	ld	r21, Y+
 848:	c4 0f       	add	r28, r20
 84a:	d5 1f       	adc	r29, r21
 84c:	ec 17       	cp	r30, r28
 84e:	fd 07       	cpc	r31, r29
 850:	61 f4       	brne	.+24     	; 0x86a <free+0xbe>
 852:	80 81       	ld	r24, Z
 854:	91 81       	ldd	r25, Z+1	; 0x01
 856:	84 0f       	add	r24, r20
 858:	95 1f       	adc	r25, r21
 85a:	02 96       	adiw	r24, 0x02	; 2
 85c:	e9 01       	movw	r28, r18
 85e:	99 83       	std	Y+1, r25	; 0x01
 860:	88 83       	st	Y, r24
 862:	82 81       	ldd	r24, Z+2	; 0x02
 864:	93 81       	ldd	r25, Z+3	; 0x03
 866:	9b 83       	std	Y+3, r25	; 0x03
 868:	8a 83       	std	Y+2, r24	; 0x02
 86a:	e0 e0       	ldi	r30, 0x00	; 0
 86c:	f0 e0       	ldi	r31, 0x00	; 0
 86e:	12 96       	adiw	r26, 0x02	; 2
 870:	8d 91       	ld	r24, X+
 872:	9c 91       	ld	r25, X
 874:	13 97       	sbiw	r26, 0x03	; 3
 876:	00 97       	sbiw	r24, 0x00	; 0
 878:	19 f0       	breq	.+6      	; 0x880 <free+0xd4>
 87a:	fd 01       	movw	r30, r26
 87c:	dc 01       	movw	r26, r24
 87e:	f7 cf       	rjmp	.-18     	; 0x86e <free+0xc2>
 880:	8d 91       	ld	r24, X+
 882:	9c 91       	ld	r25, X
 884:	11 97       	sbiw	r26, 0x01	; 1
 886:	9d 01       	movw	r18, r26
 888:	2e 5f       	subi	r18, 0xFE	; 254
 88a:	3f 4f       	sbci	r19, 0xFF	; 255
 88c:	82 0f       	add	r24, r18
 88e:	93 1f       	adc	r25, r19
 890:	20 91 ce 04 	lds	r18, 0x04CE	; 0x8004ce <__data_end>
 894:	30 91 cf 04 	lds	r19, 0x04CF	; 0x8004cf <__data_end+0x1>
 898:	28 17       	cp	r18, r24
 89a:	39 07       	cpc	r19, r25
 89c:	69 f4       	brne	.+26     	; 0x8b8 <free+0x10c>
 89e:	30 97       	sbiw	r30, 0x00	; 0
 8a0:	29 f4       	brne	.+10     	; 0x8ac <free+0x100>
 8a2:	10 92 d1 04 	sts	0x04D1, r1	; 0x8004d1 <__flp+0x1>
 8a6:	10 92 d0 04 	sts	0x04D0, r1	; 0x8004d0 <__flp>
 8aa:	02 c0       	rjmp	.+4      	; 0x8b0 <free+0x104>
 8ac:	13 82       	std	Z+3, r1	; 0x03
 8ae:	12 82       	std	Z+2, r1	; 0x02
 8b0:	b0 93 cf 04 	sts	0x04CF, r27	; 0x8004cf <__data_end+0x1>
 8b4:	a0 93 ce 04 	sts	0x04CE, r26	; 0x8004ce <__data_end>
 8b8:	df 91       	pop	r29
 8ba:	cf 91       	pop	r28
 8bc:	08 95       	ret

000008be <atoi>:
 8be:	fc 01       	movw	r30, r24
 8c0:	88 27       	eor	r24, r24
 8c2:	99 27       	eor	r25, r25
 8c4:	e8 94       	clt
 8c6:	21 91       	ld	r18, Z+
 8c8:	20 32       	cpi	r18, 0x20	; 32
 8ca:	e9 f3       	breq	.-6      	; 0x8c6 <atoi+0x8>
 8cc:	29 30       	cpi	r18, 0x09	; 9
 8ce:	10 f0       	brcs	.+4      	; 0x8d4 <atoi+0x16>
 8d0:	2e 30       	cpi	r18, 0x0E	; 14
 8d2:	c8 f3       	brcs	.-14     	; 0x8c6 <atoi+0x8>
 8d4:	2b 32       	cpi	r18, 0x2B	; 43
 8d6:	41 f0       	breq	.+16     	; 0x8e8 <atoi+0x2a>
 8d8:	2d 32       	cpi	r18, 0x2D	; 45
 8da:	39 f4       	brne	.+14     	; 0x8ea <atoi+0x2c>
 8dc:	68 94       	set
 8de:	04 c0       	rjmp	.+8      	; 0x8e8 <atoi+0x2a>
 8e0:	0e 94 84 04 	call	0x908	; 0x908 <__mulhi_const_10>
 8e4:	82 0f       	add	r24, r18
 8e6:	91 1d       	adc	r25, r1
 8e8:	21 91       	ld	r18, Z+
 8ea:	20 53       	subi	r18, 0x30	; 48
 8ec:	2a 30       	cpi	r18, 0x0A	; 10
 8ee:	c0 f3       	brcs	.-16     	; 0x8e0 <atoi+0x22>
 8f0:	1e f4       	brtc	.+6      	; 0x8f8 <atoi+0x3a>
 8f2:	90 95       	com	r25
 8f4:	81 95       	neg	r24
 8f6:	9f 4f       	sbci	r25, 0xFF	; 255
 8f8:	08 95       	ret

000008fa <memset>:
 8fa:	dc 01       	movw	r26, r24
 8fc:	01 c0       	rjmp	.+2      	; 0x900 <__stack+0x1>
 8fe:	6d 93       	st	X+, r22
 900:	41 50       	subi	r20, 0x01	; 1
 902:	50 40       	sbci	r21, 0x00	; 0
 904:	e0 f7       	brcc	.-8      	; 0x8fe <memset+0x4>
 906:	08 95       	ret

00000908 <__mulhi_const_10>:
 908:	7a e0       	ldi	r23, 0x0A	; 10
 90a:	97 9f       	mul	r25, r23
 90c:	90 2d       	mov	r25, r0
 90e:	87 9f       	mul	r24, r23
 910:	80 2d       	mov	r24, r0
 912:	91 0d       	add	r25, r1
 914:	11 24       	eor	r1, r1
 916:	08 95       	ret

00000918 <_exit>:
 918:	f8 94       	cli

0000091a <__stop_program>:
 91a:	ff cf       	rjmp	.-2      	; 0x91a <__stop_program>
